target datalayout = "e-m:e-p270:32:32-p271:32:32-p272:64:64-i64:64-i128:128-f80:128-n8:16:32:64-S128"
target triple = "x86_64-pc-linux-gnu"

%struct.gmx_ana_pos_t = type <{ ptr, ptr, ptr, %struct.gmx_ana_indexmap_t, i32, [4 x i8] }>
%struct.gmx_ana_indexmap_t = type { i32, ptr, ptr, %struct.t_blocka, ptr, %struct.t_blocka, i8 }
%struct.t_blocka = type { i32, ptr, i32, ptr, i32, i32 }

; Function Attrs: mustprogress nounwind uwtable
define void @_Z25gmx_ana_pos_append_finishP13gmx_ana_pos_t(ptr noundef %0) #2 {
  %2 = alloca ptr, align 8
  store ptr %0, ptr %2, align 8
  %3 = load ptr, ptr %2, align 8
  %4 = getelementptr inbounds %struct.gmx_ana_pos_t, ptr %3, i32 0, i32 3
  %5 = getelementptr inbounds %struct.gmx_ana_indexmap_t, ptr %4, i32 0, i32 3
  %6 = getelementptr inbounds %struct.t_blocka, ptr %5, i32 0, i32 0
  %7 = load i32, ptr %6, align 8
  %8 = load ptr, ptr %2, align 8
  %9 = getelementptr inbounds %struct.gmx_ana_pos_t, ptr %8, i32 0, i32 3
  %10 = getelementptr inbounds %struct.gmx_ana_indexmap_t, ptr %9, i32 0, i32 5
  %11 = getelementptr inbounds %struct.t_blocka, ptr %10, i32 0, i32 0
  %12 = load i32, ptr %11, align 8
  %13 = icmp ne i32 %7, %12
  br i1 %13, label %14, label %18

14:                                               ; preds = %1
  %15 = load ptr, ptr %2, align 8
  %16 = getelementptr inbounds %struct.gmx_ana_pos_t, ptr %15, i32 0, i32 3
  %17 = getelementptr inbounds %struct.gmx_ana_indexmap_t, ptr %16, i32 0, i32 6
  store i8 0, ptr %17, align 8
  br label %18

18:                                               ; preds = %14, %1
  ret void
}