; Function Attrs: mustprogress nofree norecurse nosync nounwind willreturn memory(argmem: readwrite) uwtable
define void @_Z25gmx_ana_pos_append_finishP13gmx_ana_pos_t(ptr nocapture noundef %0) local_unnamed_addr #9 {
  %2 = getelementptr inbounds i8, ptr %0, i64 48
  %3 = load i32, ptr %2, align 8
  %4 = getelementptr inbounds i8, ptr %0, i64 96
  %5 = load i32, ptr %4, align 8
  %.not = icmp eq i32 %3, %5
  br i1 %.not, label %8, label %6

6:                                                ; preds = %1
  %7 = getelementptr inbounds i8, ptr %0, i64 136
  store i8 0, ptr %7, align 8
  br label %8

8:                                                ; preds = %6, %1
  ret void
}